; ModuleID = '40/2812.c'
source_filename = "40/2812.c"
target datalayout = "e-m:e-p270:32:32-p271:32:32-p272:64:64-i64:64-f80:128-n8:16:32:64-S128"
target triple = "x86_64-pc-linux-gnu"

@.str = private unnamed_addr constant [20 x i8] c"%lf %lf %lf %lf %lf\00", align 1
@.str.1 = private unnamed_addr constant [14 x i8] c"Invalid input\00", align 1
@.str.2 = private unnamed_addr constant [6 x i8] c"%.4lf\00", align 1

; Function Attrs: noinline nounwind uwtable
define dso_local i32 @main(i32 %0, i8** %1) #0 {
  %3 = alloca i32, align 4
  %4 = alloca i32, align 4
  %5 = alloca i8**, align 8
  %6 = alloca double, align 8
  %7 = alloca double, align 8
  %8 = alloca double, align 8
  %9 = alloca double, align 8
  %10 = alloca double, align 8
  %11 = alloca double, align 8
  %12 = alloca double, align 8
  %13 = alloca double, align 8
  %14 = alloca double, align 8
  store i32 0, i32* %3, align 4
  store i32 %0, i32* %4, align 4
  store i8** %1, i8*** %5, align 8
  %15 = call i32 (i8*, ...) @__isoc99_scanf(i8* getelementptr inbounds ([20 x i8], [20 x i8]* @.str, i64 0, i64 0), double* %6, double* %7, double* %8, double* %9, double* %10)
  %16 = load double, double* %6, align 8
  %17 = load double, double* %7, align 8
  %18 = fadd double %16, %17
  %19 = load double, double* %8, align 8
  %20 = fadd double %18, %19
  %21 = load double, double* %9, align 8
  %22 = fadd double %20, %21
  %23 = fdiv double %22, 2.000000e+00
  store double %23, double* %12, align 8
  %24 = load double, double* %12, align 8
  %25 = load double, double* %6, align 8
  %26 = fsub double %24, %25
  %27 = load double, double* %12, align 8
  %28 = load double, double* %7, align 8
  %29 = fsub double %27, %28
  %30 = fmul double %26, %29
  %31 = load double, double* %12, align 8
  %32 = load double, double* %8, align 8
  %33 = fsub double %31, %32
  %34 = fmul double %30, %33
  %35 = load double, double* %12, align 8
  %36 = load double, double* %9, align 8
  %37 = fsub double %35, %36
  %38 = fmul double %34, %37
  %39 = load double, double* %6, align 8
  %40 = load double, double* %7, align 8
  %41 = fmul double %39, %40
  %42 = load double, double* %8, align 8
  %43 = fmul double %41, %42
  %44 = load double, double* %9, align 8
  %45 = fmul double %43, %44
  %46 = load double, double* %10, align 8
  %47 = call double @zhuanhuan(double %46)
  %48 = call double @cos(double %47) #3
  %49 = fmul double %45, %48
  %50 = load double, double* %10, align 8
  %51 = call double @zhuanhuan(double %50)
  %52 = call double @cos(double %51) #3
  %53 = fmul double %49, %52
  %54 = fsub double %38, %53
  store double %54, double* %14, align 8
  %55 = load double, double* %14, align 8
  %56 = fcmp olt double %55, 0.000000e+00
  br i1 %56, label %57, label %59

57:                                               ; preds = %2
  %58 = call i32 (i8*, ...) @printf(i8* getelementptr inbounds ([14 x i8], [14 x i8]* @.str.1, i64 0, i64 0))
  br label %64

59:                                               ; preds = %2
  %60 = load double, double* %14, align 8
  %61 = call double @sqrt(double %60) #3
  store double %61, double* %13, align 8
  %62 = load double, double* %13, align 8
  %63 = call i32 (i8*, ...) @printf(i8* getelementptr inbounds ([6 x i8], [6 x i8]* @.str.2, i64 0, i64 0), double %62)
  br label %64

64:                                               ; preds = %59, %57
  ret i32 0
}

declare dso_local i32 @__isoc99_scanf(i8*, ...) #1

; Function Attrs: nounwind
declare dso_local double @cos(double) #2

; Function Attrs: noinline nounwind uwtable
define dso_local double @zhuanhuan(double %0) #0 {
  %2 = alloca double, align 8
  %3 = alloca double, align 8
  store double %0, double* %2, align 8
  %4 = load double, double* %2, align 8
  %5 = fmul double 1.000000e+02, %4
  %6 = fdiv double %5, 3.600000e+02
  store double %6, double* %3, align 8
  %7 = load double, double* %3, align 8
  ret double %7
}

declare dso_local i32 @printf(i8*, ...) #1

; Function Attrs: nounwind
declare dso_local double @sqrt(double) #2


!llvm.module.flags = !{!0}
!llvm.ident = !{!1}

!0 = !{i32 1, !"wchar_size", i32 4}
!1 = !{!"clang version 10.0.0-4ubuntu1 "}
